target datalayout = "e-m:e-p270:32:32-p271:32:32-p272:64:64-i64:64-i128:128-f80:128-n8:16:32:64-S128"
target triple = "x86_64-pc-linux-gnu"

%struct.H5D_farray_ctx_t = type { i64, i64 }

; Function Attrs: nounwind uwtable
define internal i32 @H5D__farray_encode(ptr noundef %0, ptr noundef %1, i64 noundef %2, ptr noundef %3) #0 {
  %5 = alloca ptr, align 8
  %6 = alloca ptr, align 8
  %7 = alloca i64, align 8
  %8 = alloca ptr, align 8
  %9 = alloca ptr, align 8
  %10 = alloca ptr, align 8
  store ptr %0, ptr %5, align 8
  store ptr %1, ptr %6, align 8
  store i64 %2, ptr %7, align 8
  store ptr %3, ptr %8, align 8
  %11 = load ptr, ptr %8, align 8
  store ptr %11, ptr %9, align 8
  %12 = load ptr, ptr %6, align 8
  store ptr %12, ptr %10, align 8
  br label %13

13:                                               ; preds = %16, %4
  %14 = load i64, ptr %7, align 8
  %15 = icmp ne i64 %14, 0
  br i1 %15, label %16, label %26

16:                                               ; preds = %13
  %17 = load ptr, ptr %9, align 8
  %18 = getelementptr inbounds %struct.H5D_farray_ctx_t, ptr %17, i32 0, i32 0
  %19 = load i64, ptr %18, align 8
  %20 = load ptr, ptr %10, align 8
  %21 = load i64, ptr %20, align 8
  call void @H5F_addr_encode_len(i64 noundef %19, ptr noundef %5, i64 noundef %21)
  %22 = load ptr, ptr %10, align 8
  %23 = getelementptr inbounds i64, ptr %22, i32 1
  store ptr %23, ptr %10, align 8
  %24 = load i64, ptr %7, align 8
  %25 = add i64 %24, -1
  store i64 %25, ptr %7, align 8
  br label %13

26:                                               ; preds = %13
  ret i32 0
}