; Function Attrs: nounwind uwtable
define internal noundef i32 @H5D__farray_encode(ptr noundef %0, ptr nocapture noundef readonly %1, i64 noundef %2, ptr nocapture noundef readonly %3) #1 {
  %5 = alloca ptr, align 8
  store ptr %0, ptr %5, align 8
  %.not7 = icmp eq i64 %2, 0
  br i1 %.not7, label %._crit_edge, label %.lr.ph

.lr.ph:                                           ; preds = %4, %.lr.ph
  %.09 = phi ptr [ %8, %.lr.ph ], [ %1, %4 ]
  %.068 = phi i64 [ %9, %.lr.ph ], [ %2, %4 ]
  %6 = load i64, ptr %3, align 8
  %7 = load i64, ptr %.09, align 8
  call void @H5F_addr_encode_len(i64 noundef %6, ptr noundef nonnull %5, i64 noundef %7) #11
  %8 = getelementptr inbounds i8, ptr %.09, i64 8
  %9 = add i64 %.068, -1
  %.not = icmp eq i64 %9, 0
  br i1 %.not, label %._crit_edge, label %.lr.ph

._crit_edge:                                      ; preds = %.lr.ph, %4
  ret i32 0
}